; Function Attrs: mustprogress nounwind uwtable
define hidden void @_ZN6hermes3hbc20BCProviderFromBuffer7madviseENS_8oscompat7MAdviceE(ptr nocapture noundef nonnull readonly align 8 dereferenceable(376) %this, i32 noundef %advice) unnamed_addr #0 align 2 {
entry:
  %buffer_ = getelementptr inbounds i8, ptr %this, i64 280
  %0 = load ptr, ptr %buffer_, align 8
  %data_.i = getelementptr inbounds i8, ptr %0, i64 8
  %1 = load ptr, ptr %data_.i, align 8
  %size_.i = getelementptr inbounds i8, ptr %0, i64 16
  %2 = load i64, ptr %size_.i, align 8
  %call7 = tail call noundef zeroext i1 @_ZN6hermes8oscompat10vm_madviseEPvmNS0_7MAdviceE(ptr noundef %1, i64 noundef %2, i32 noundef %advice) #19
  ret void
}